; ModuleID = '61/1585.c'
source_filename = "61/1585.c"
target datalayout = "e-m:e-p270:32:32-p271:32:32-p272:64:64-i64:64-f80:128-n8:16:32:64-S128"
target triple = "x86_64-pc-linux-gnu"

@.str = private unnamed_addr constant [3 x i8] c"%d\00", align 1
@.str.1 = private unnamed_addr constant [4 x i8] c"%d\0A\00", align 1

; Function Attrs: noinline nounwind uwtable
define dso_local i32 @main() #0 {
  %1 = alloca i32, align 4
  %2 = alloca i32, align 4
  %3 = alloca [20 x i32], align 16
  %4 = alloca [20 x i32], align 16
  %5 = alloca i32, align 4
  store i32 0, i32* %1, align 4
  %6 = call i32 (i8*, ...) @__isoc99_scanf(i8* getelementptr inbounds ([3 x i8], [3 x i8]* @.str, i64 0, i64 0), i32* %2)
  store i32 0, i32* %5, align 4
  br label %7

7:                                                ; preds = %29, %0
  %8 = load i32, i32* %5, align 4
  %9 = load i32, i32* %2, align 4
  %10 = icmp slt i32 %8, %9
  br i1 %10, label %11, label %32

11:                                               ; preds = %7
  %12 = load i32, i32* %5, align 4
  %13 = sext i32 %12 to i64
  %14 = getelementptr inbounds [20 x i32], [20 x i32]* %3, i64 0, i64 %13
  %15 = call i32 (i8*, ...) @__isoc99_scanf(i8* getelementptr inbounds ([3 x i8], [3 x i8]* @.str, i64 0, i64 0), i32* %14)
  %16 = load i32, i32* %5, align 4
  %17 = sext i32 %16 to i64
  %18 = getelementptr inbounds [20 x i32], [20 x i32]* %3, i64 0, i64 %17
  %19 = load i32, i32* %18, align 4
  %20 = call i32 @F(i32 %19)
  %21 = load i32, i32* %5, align 4
  %22 = sext i32 %21 to i64
  %23 = getelementptr inbounds [20 x i32], [20 x i32]* %4, i64 0, i64 %22
  store i32 %20, i32* %23, align 4
  %24 = load i32, i32* %5, align 4
  %25 = sext i32 %24 to i64
  %26 = getelementptr inbounds [20 x i32], [20 x i32]* %4, i64 0, i64 %25
  %27 = load i32, i32* %26, align 4
  %28 = call i32 (i8*, ...) @printf(i8* getelementptr inbounds ([4 x i8], [4 x i8]* @.str.1, i64 0, i64 0), i32 %27)
  br label %29

29:                                               ; preds = %11
  %30 = load i32, i32* %5, align 4
  %31 = add nsw i32 %30, 1
  store i32 %31, i32* %5, align 4
  br label %7

32:                                               ; preds = %7
  ret i32 0
}

declare dso_local i32 @__isoc99_scanf(i8*, ...) #1

; Function Attrs: noinline nounwind uwtable
define dso_local i32 @F(i32 %0) #0 {
  %2 = alloca i32, align 4
  %3 = alloca i32, align 4
  %4 = alloca [10000 x i32], align 16
  %5 = alloca i32, align 4
  %6 = alloca i32, align 4
  store i32 %0, i32* %2, align 4
  %7 = getelementptr inbounds [10000 x i32], [10000 x i32]* %4, i64 0, i64 0
  store i32 1, i32* %7, align 16
  %8 = getelementptr inbounds [10000 x i32], [10000 x i32]* %4, i64 0, i64 1
  store i32 1, i32* %8, align 4
  store i32 2, i32* %5, align 4
  br label %9

9:                                                ; preds = %27, %1
  %10 = load i32, i32* %5, align 4
  %11 = icmp slt i32 %10, 10000
  br i1 %11, label %12, label %30

12:                                               ; preds = %9
  %13 = load i32, i32* %5, align 4
  %14 = sub nsw i32 %13, 1
  %15 = sext i32 %14 to i64
  %16 = getelementptr inbounds [10000 x i32], [10000 x i32]* %4, i64 0, i64 %15
  %17 = load i32, i32* %16, align 4
  %18 = load i32, i32* %5, align 4
  %19 = sub nsw i32 %18, 2
  %20 = sext i32 %19 to i64
  %21 = getelementptr inbounds [10000 x i32], [10000 x i32]* %4, i64 0, i64 %20
  %22 = load i32, i32* %21, align 4
  %23 = add nsw i32 %17, %22
  %24 = load i32, i32* %5, align 4
  %25 = sext i32 %24 to i64
  %26 = getelementptr inbounds [10000 x i32], [10000 x i32]* %4, i64 0, i64 %25
  store i32 %23, i32* %26, align 4
  br label %27

27:                                               ; preds = %12
  %28 = load i32, i32* %5, align 4
  %29 = add nsw i32 %28, 1
  store i32 %29, i32* %5, align 4
  br label %9

30:                                               ; preds = %9
  store i32 0, i32* %6, align 4
  br label %31

31:                                               ; preds = %45, %30
  %32 = load i32, i32* %6, align 4
  %33 = icmp slt i32 %32, 10000
  br i1 %33, label %34, label %48

34:                                               ; preds = %31
  %35 = load i32, i32* %2, align 4
  %36 = load i32, i32* %6, align 4
  %37 = add nsw i32 %36, 1
  %38 = icmp eq i32 %35, %37
  br i1 %38, label %39, label %44

39:                                               ; preds = %34
  %40 = load i32, i32* %6, align 4
  %41 = sext i32 %40 to i64
  %42 = getelementptr inbounds [10000 x i32], [10000 x i32]* %4, i64 0, i64 %41
  %43 = load i32, i32* %42, align 4
  store i32 %43, i32* %3, align 4
  br label %48

44:                                               ; preds = %34
  br label %45

45:                                               ; preds = %44
  %46 = load i32, i32* %6, align 4
  %47 = add nsw i32 %46, 1
  store i32 %47, i32* %6, align 4
  br label %31

48:                                               ; preds = %39, %31
  %49 = load i32, i32* %3, align 4
  ret i32 %49
}

declare dso_local i32 @printf(i8*, ...) #1


!llvm.module.flags = !{!0}
!llvm.ident = !{!1}

!0 = !{i32 1, !"wchar_size", i32 4}
!1 = !{!"clang version 10.0.0-4ubuntu1 "}
